target datalayout = "e-m:e-p270:32:32-p271:32:32-p272:64:64-i64:64-i128:128-f80:128-n8:16:32:64-S128"
target triple = "x86_64-pc-linux-gnu"

%struct.xllist = type { ptr, ptr, i32, i32, i32 }
%struct.StateFileChunk = type { ptr, i32, ptr }
%struct.TwoPhaseRecordOnDisk = type { i32, i8, i16 }

@records = internal global %struct.xllist zeroinitializer, align 8

; Function Attrs: nounwind uwtable
define internal void @save_state_data(ptr noundef %0, i32 noundef %1) #0 {
  %3 = alloca ptr, align 8
  %4 = alloca i32, align 4
  %5 = alloca i32, align 4
  store ptr %0, ptr %3, align 8
  store i32 %1, ptr %4, align 4
  call void @llvm.lifetime.start.p0(i64 4, ptr %5) #12
  %6 = load i32, ptr %4, align 4
  %7 = zext i32 %6 to i64
  %8 = add i64 %7, 7
  %9 = and i64 %8, -8
  %10 = trunc i64 %9 to i32
  store i32 %10, ptr %5, align 4
  %11 = load i32, ptr %5, align 4
  %12 = load i32, ptr getelementptr inbounds nuw (%struct.xllist, ptr @records, i32 0, i32 3), align 4
  %13 = icmp ugt i32 %11, %12
  br i1 %13, label %14, label %39

14:                                               ; preds = %2
  %15 = call ptr @palloc0(i64 noundef 24)
  %16 = load ptr, ptr getelementptr inbounds nuw (%struct.xllist, ptr @records, i32 0, i32 1), align 8
  %17 = getelementptr inbounds nuw %struct.StateFileChunk, ptr %16, i32 0, i32 2
  store ptr %15, ptr %17, align 8
  %18 = load ptr, ptr getelementptr inbounds nuw (%struct.xllist, ptr @records, i32 0, i32 1), align 8
  %19 = getelementptr inbounds nuw %struct.StateFileChunk, ptr %18, i32 0, i32 2
  %20 = load ptr, ptr %19, align 8
  store ptr %20, ptr getelementptr inbounds nuw (%struct.xllist, ptr @records, i32 0, i32 1), align 8
  %21 = load ptr, ptr getelementptr inbounds nuw (%struct.xllist, ptr @records, i32 0, i32 1), align 8
  %22 = getelementptr inbounds nuw %struct.StateFileChunk, ptr %21, i32 0, i32 1
  store i32 0, ptr %22, align 8
  %23 = load ptr, ptr getelementptr inbounds nuw (%struct.xllist, ptr @records, i32 0, i32 1), align 8
  %24 = getelementptr inbounds nuw %struct.StateFileChunk, ptr %23, i32 0, i32 2
  store ptr null, ptr %24, align 8
  %25 = load i32, ptr getelementptr inbounds nuw (%struct.xllist, ptr @records, i32 0, i32 2), align 8
  %26 = add i32 %25, 1
  store i32 %26, ptr getelementptr inbounds nuw (%struct.xllist, ptr @records, i32 0, i32 2), align 8
  %27 = load i32, ptr %5, align 4
  %28 = icmp ugt i32 %27, 512
  br i1 %28, label %29, label %31

29:                                               ; preds = %14
  %30 = load i32, ptr %5, align 4
  br label %32

31:                                               ; preds = %14
  br label %32

32:                                               ; preds = %31, %29
  %33 = phi i32 [ %30, %29 ], [ 512, %31 ]
  store i32 %33, ptr getelementptr inbounds nuw (%struct.xllist, ptr @records, i32 0, i32 3), align 4
  %34 = load i32, ptr getelementptr inbounds nuw (%struct.xllist, ptr @records, i32 0, i32 3), align 4
  %35 = zext i32 %34 to i64
  %36 = call ptr @palloc(i64 noundef %35)
  %37 = load ptr, ptr getelementptr inbounds nuw (%struct.xllist, ptr @records, i32 0, i32 1), align 8
  %38 = getelementptr inbounds nuw %struct.StateFileChunk, ptr %37, i32 0, i32 0
  store ptr %36, ptr %38, align 8
  br label %39

39:                                               ; preds = %32, %2
  %40 = load ptr, ptr getelementptr inbounds nuw (%struct.xllist, ptr @records, i32 0, i32 1), align 8
  %41 = getelementptr inbounds nuw %struct.StateFileChunk, ptr %40, i32 0, i32 0
  %42 = load ptr, ptr %41, align 8
  %43 = load ptr, ptr getelementptr inbounds nuw (%struct.xllist, ptr @records, i32 0, i32 1), align 8
  %44 = getelementptr inbounds nuw %struct.StateFileChunk, ptr %43, i32 0, i32 1
  %45 = load i32, ptr %44, align 8
  %46 = zext i32 %45 to i64
  %47 = getelementptr inbounds nuw i8, ptr %42, i64 %46
  %48 = load ptr, ptr %3, align 8
  %49 = load i32, ptr %4, align 4
  %50 = zext i32 %49 to i64
  call void @llvm.memcpy.p0.p0.i64(ptr align 1 %47, ptr align 1 %48, i64 %50, i1 false)
  %51 = load i32, ptr %5, align 4
  %52 = load ptr, ptr getelementptr inbounds nuw (%struct.xllist, ptr @records, i32 0, i32 1), align 8
  %53 = getelementptr inbounds nuw %struct.StateFileChunk, ptr %52, i32 0, i32 1
  %54 = load i32, ptr %53, align 8
  %55 = add i32 %54, %51
  store i32 %55, ptr %53, align 8
  %56 = load i32, ptr %5, align 4
  %57 = load i32, ptr getelementptr inbounds nuw (%struct.xllist, ptr @records, i32 0, i32 3), align 4
  %58 = sub i32 %57, %56
  store i32 %58, ptr getelementptr inbounds nuw (%struct.xllist, ptr @records, i32 0, i32 3), align 4
  %59 = load i32, ptr %5, align 4
  %60 = load i32, ptr getelementptr inbounds nuw (%struct.xllist, ptr @records, i32 0, i32 4), align 8
  %61 = add i32 %60, %59
  store i32 %61, ptr getelementptr inbounds nuw (%struct.xllist, ptr @records, i32 0, i32 4), align 8
  call void @llvm.lifetime.end.p0(i64 4, ptr %5) #12
  ret void
}

; Function Attrs: nounwind uwtable
define dso_local void @RegisterTwoPhaseRecord(i8 noundef zeroext %0, i16 noundef zeroext %1, ptr noundef %2, i32 noundef %3) #0 {
  %5 = alloca i8, align 1
  %6 = alloca i16, align 2
  %7 = alloca ptr, align 8
  %8 = alloca i32, align 4
  %9 = alloca %struct.TwoPhaseRecordOnDisk, align 4
  store i8 %0, ptr %5, align 1
  store i16 %1, ptr %6, align 2
  store ptr %2, ptr %7, align 8
  store i32 %3, ptr %8, align 4
  call void @llvm.lifetime.start.p0(i64 8, ptr %9) #12
  %10 = load i8, ptr %5, align 1
  %11 = getelementptr inbounds nuw %struct.TwoPhaseRecordOnDisk, ptr %9, i32 0, i32 1
  store i8 %10, ptr %11, align 4
  %12 = load i16, ptr %6, align 2
  %13 = getelementptr inbounds nuw %struct.TwoPhaseRecordOnDisk, ptr %9, i32 0, i32 2
  store i16 %12, ptr %13, align 2
  %14 = load i32, ptr %8, align 4
  %15 = getelementptr inbounds nuw %struct.TwoPhaseRecordOnDisk, ptr %9, i32 0, i32 0
  store i32 %14, ptr %15, align 4
  call void @save_state_data(ptr noundef %9, i32 noundef 8)
  %16 = load i32, ptr %8, align 4
  %17 = icmp ugt i32 %16, 0
  br i1 %17, label %18, label %21

18:                                               ; preds = %4
  %19 = load ptr, ptr %7, align 8
  %20 = load i32, ptr %8, align 4
  call void @save_state_data(ptr noundef %19, i32 noundef %20)
  br label %21

21:                                               ; preds = %18, %4
  call void @llvm.lifetime.end.p0(i64 8, ptr %9) #12
  ret void
}