; Function Attrs: nounwind uwtable
define dso_local void @RegisterTwoPhaseRecord(i8 noundef zeroext %0, i16 noundef zeroext %1, ptr noundef readonly captures(none) %2, i32 noundef %3) local_unnamed_addr #0 {
  %5 = load i32, ptr @records.3, align 4
  %6 = icmp ult i32 %5, 8
  br i1 %6, label %7, label %._crit_edge.i

._crit_edge.i:                                    ; preds = %4
  %.pre.i = load ptr, ptr @records.1, align 8
  %.pre8.i = load ptr, ptr %.pre.i, align 8
  br label %save_state_data.exit

7:                                                ; preds = %4
  %8 = tail call ptr @palloc0(i64 noundef 24) #14
  %9 = load ptr, ptr @records.1, align 8
  %10 = getelementptr inbounds nuw i8, ptr %9, i64 16
  store ptr %8, ptr %10, align 8
  store ptr %8, ptr @records.1, align 8
  %11 = getelementptr inbounds nuw i8, ptr %8, i64 8
  store i32 0, ptr %11, align 8
  %12 = getelementptr inbounds nuw i8, ptr %8, i64 16
  store ptr null, ptr %12, align 8
  %13 = load i32, ptr @records.2, align 8
  %14 = add i32 %13, 1
  store i32 %14, ptr @records.2, align 8
  store i32 512, ptr @records.3, align 4
  %15 = tail call ptr @palloc(i64 noundef 512) #14
  %16 = load ptr, ptr @records.1, align 8
  store ptr %15, ptr %16, align 8
  %.pre9.i = load i32, ptr @records.3, align 4
  br label %save_state_data.exit

save_state_data.exit:                             ; preds = %._crit_edge.i, %7
  %17 = phi i32 [ %5, %._crit_edge.i ], [ %.pre9.i, %7 ]
  %18 = phi ptr [ %.pre8.i, %._crit_edge.i ], [ %15, %7 ]
  %.pre.i6 = phi ptr [ %.pre.i, %._crit_edge.i ], [ %16, %7 ]
  %19 = getelementptr inbounds nuw i8, ptr %.pre.i6, i64 8
  %20 = load i32, ptr %19, align 8
  %21 = zext i32 %20 to i64
  %22 = getelementptr inbounds nuw i8, ptr %18, i64 %21
  store i32 %3, ptr %22, align 1
  %.sroa.4.0..sroa_idx = getelementptr inbounds nuw i8, ptr %22, i64 4
  store i8 %0, ptr %.sroa.4.0..sroa_idx, align 1
  %.sroa.510.0..sroa_idx = getelementptr inbounds nuw i8, ptr %22, i64 6
  store i16 %1, ptr %.sroa.510.0..sroa_idx, align 1
  %23 = load i32, ptr %19, align 8
  %24 = add i32 %23, 8
  store i32 %24, ptr %19, align 8
  %25 = add i32 %17, -8
  store i32 %25, ptr @records.3, align 4
  %26 = load i32, ptr @records.4, align 8
  %27 = add i32 %26, 8
  store i32 %27, ptr @records.4, align 8
  %.not = icmp eq i32 %3, 0
  br i1 %.not, label %57, label %28

28:                                               ; preds = %save_state_data.exit
  %29 = add i32 %3, 7
  %30 = and i32 %29, -8
  %31 = icmp ugt i32 %30, %25
  br i1 %31, label %32, label %._crit_edge.i5

._crit_edge.i5:                                   ; preds = %28
  %.pre8.i7 = load ptr, ptr %.pre.i6, align 8
  br label %save_state_data.exit9

32:                                               ; preds = %28
  %33 = tail call ptr @palloc0(i64 noundef 24) #14
  %34 = load ptr, ptr @records.1, align 8
  %35 = getelementptr inbounds nuw i8, ptr %34, i64 16
  store ptr %33, ptr %35, align 8
  store ptr %33, ptr @records.1, align 8
  %36 = getelementptr inbounds nuw i8, ptr %33, i64 8
  store i32 0, ptr %36, align 8
  %37 = getelementptr inbounds nuw i8, ptr %33, i64 16
  store ptr null, ptr %37, align 8
  %38 = load i32, ptr @records.2, align 8
  %39 = add i32 %38, 1
  store i32 %39, ptr @records.2, align 8
  %40 = tail call i32 @llvm.umax.i32(i32 %30, i32 512)
  store i32 %40, ptr @records.3, align 4
  %41 = zext i32 %40 to i64
  %42 = tail call ptr @palloc(i64 noundef %41) #14
  %43 = load ptr, ptr @records.1, align 8
  store ptr %42, ptr %43, align 8
  %.pre9.i8 = load i32, ptr @records.3, align 4
  %.phi.trans.insert = getelementptr inbounds nuw i8, ptr %43, i64 8
  %.pre = load i32, ptr %.phi.trans.insert, align 8
  %.pre11 = load i32, ptr @records.4, align 8
  br label %save_state_data.exit9

save_state_data.exit9:                            ; preds = %._crit_edge.i5, %32
  %44 = phi i32 [ %27, %._crit_edge.i5 ], [ %.pre11, %32 ]
  %45 = phi i32 [ %24, %._crit_edge.i5 ], [ %.pre, %32 ]
  %46 = phi i32 [ %25, %._crit_edge.i5 ], [ %.pre9.i8, %32 ]
  %47 = phi ptr [ %.pre8.i7, %._crit_edge.i5 ], [ %42, %32 ]
  %48 = phi ptr [ %.pre.i6, %._crit_edge.i5 ], [ %43, %32 ]
  %49 = zext i32 %3 to i64
  %50 = getelementptr inbounds nuw i8, ptr %48, i64 8
  %51 = zext i32 %45 to i64
  %52 = getelementptr inbounds nuw i8, ptr %47, i64 %51
  tail call void @llvm.memcpy.p0.p0.i64(ptr align 1 %52, ptr readonly align 1 %2, i64 %49, i1 false)
  %53 = load i32, ptr %50, align 8
  %54 = add i32 %53, %30
  store i32 %54, ptr %50, align 8
  %55 = sub i32 %46, %30
  store i32 %55, ptr @records.3, align 4
  %56 = add i32 %44, %30
  store i32 %56, ptr @records.4, align 8
  br label %57

57:                                               ; preds = %save_state_data.exit9, %save_state_data.exit
  ret void
}